target datalayout = "e-m:e-p270:32:32-p271:32:32-p272:64:64-i64:64-i128:128-f80:128-n8:16:32:64-S128"
target triple = "x86_64-pc-linux-gnu"

%"struct.faiss::OnDiskInvertedLists" = type <{ %"struct.faiss::InvertedLists.base", [7 x i8], %"class.std::vector.5", %"class.std::__cxx11::list", %"class.std::__cxx11::basic_string", i64, ptr, i8, [7 x i8], ptr, ptr, i32, [4 x i8] }>
%"struct.faiss::InvertedLists.base" = type <{ ptr, i64, i64, i8 }>
%"class.std::vector.5" = type { %"struct.std::_Vector_base.6" }
%"struct.std::_Vector_base.6" = type { %"struct.std::_Vector_base<faiss::OnDiskOneList, std::allocator<faiss::OnDiskOneList>>::_Vector_impl" }
%"struct.std::_Vector_base<faiss::OnDiskOneList, std::allocator<faiss::OnDiskOneList>>::_Vector_impl" = type { %"struct.std::_Vector_base<faiss::OnDiskOneList, std::allocator<faiss::OnDiskOneList>>::_Vector_impl_data" }
%"struct.std::_Vector_base<faiss::OnDiskOneList, std::allocator<faiss::OnDiskOneList>>::_Vector_impl_data" = type { ptr, ptr, ptr }
%"class.std::__cxx11::list" = type { %"class.std::__cxx11::_List_base" }
%"class.std::__cxx11::_List_base" = type { %"struct.std::__cxx11::_List_base<faiss::OnDiskInvertedLists::Slot, std::allocator<faiss::OnDiskInvertedLists::Slot>>::_List_impl" }
%"struct.std::__cxx11::_List_base<faiss::OnDiskInvertedLists::Slot, std::allocator<faiss::OnDiskInvertedLists::Slot>>::_List_impl" = type { %"struct.std::__detail::_List_node_header" }
%"struct.std::__detail::_List_node_header" = type { %"struct.std::__detail::_List_node_base", i64 }
%"struct.std::__detail::_List_node_base" = type { ptr, ptr }
%"class.std::__cxx11::basic_string" = type { %"struct.std::__cxx11::basic_string<char>::_Alloc_hider", i64, %union.anon }
%"struct.std::__cxx11::basic_string<char>::_Alloc_hider" = type { ptr }
%union.anon = type { i64, [8 x i8] }
%"struct.faiss::OnDiskOneList" = type { i64, i64, i64 }
%"struct.faiss::InvertedLists" = type <{ ptr, i64, i64, i8, [7 x i8] }>
%union.pthread_mutex_t = type { %struct.__pthread_mutex_s }
%struct.__pthread_mutex_s = type { i32, i32, i32, i32, i32, i16, i16, %struct.__pthread_internal_list }
%struct.__pthread_internal_list = type { ptr, ptr }
%"struct.faiss::LockLevels" = type <{ %union.pthread_mutex_t, %union.pthread_cond_t, %union.pthread_cond_t, %union.pthread_cond_t, %"class.std::unordered_set", i32, i8, i8, [2 x i8] }>
%union.pthread_cond_t = type { %struct.__pthread_cond_s }
%struct.__pthread_cond_s = type { %union.__atomic_wide_counter, %union.__atomic_wide_counter, [2 x i32], [2 x i32], i32, i32, [2 x i32] }
%union.__atomic_wide_counter = type { i64 }
%"class.std::unordered_set" = type { %"class.std::_Hashtable" }
%"class.std::_Hashtable" = type { ptr, i64, %"struct.std::__detail::_Hash_node_base", i64, %"struct.std::__detail::_Prime_rehash_policy", ptr }
%"struct.std::__detail::_Hash_node_base" = type { ptr }
%"struct.std::__detail::_Prime_rehash_policy" = type { float, i64 }

@_ZN5faiss13OnDiskOneListC1Ev = unnamed_addr alias void (ptr), ptr @_ZN5faiss13OnDiskOneListC2Ev

; Function Attrs: mustprogress nounwind uwtable
define linkonce_odr void @_ZN5faiss10LockLevels8unlock_2Ev(ptr noundef nonnull align 8 dereferenceable(246) %0) #0 comdat align 2 {
  %2 = alloca ptr, align 8
  store ptr %0, ptr %2, align 8
  %3 = load ptr, ptr %2, align 8
  %4 = getelementptr inbounds %"struct.faiss::LockLevels", ptr %3, i32 0, i32 0
  %5 = call i32 @pthread_mutex_lock(ptr noundef %4) #13
  %6 = getelementptr inbounds %"struct.faiss::LockLevels", ptr %3, i32 0, i32 7
  store i8 0, ptr %6, align 1
  %7 = getelementptr inbounds %"struct.faiss::LockLevels", ptr %3, i32 0, i32 5
  %8 = load i32, ptr %7, align 8
  %9 = add nsw i32 %8, -1
  store i32 %9, ptr %7, align 8
  %10 = getelementptr inbounds %"struct.faiss::LockLevels", ptr %3, i32 0, i32 2
  %11 = call i32 @pthread_cond_signal(ptr noundef %10) #13
  %12 = getelementptr inbounds %"struct.faiss::LockLevels", ptr %3, i32 0, i32 0
  %13 = call i32 @pthread_mutex_unlock(ptr noundef %12) #13
  ret void
}

; Function Attrs: mustprogress nounwind uwtable
define linkonce_odr noundef nonnull align 8 dereferenceable(8) ptr @_ZSt3minImERKT_S2_S2_(ptr noundef nonnull align 8 dereferenceable(8) %0, ptr noundef nonnull align 8 dereferenceable(8) %1) #0 comdat {
  %3 = alloca ptr, align 8
  %4 = alloca ptr, align 8
  %5 = alloca ptr, align 8
  store ptr %0, ptr %4, align 8
  store ptr %1, ptr %5, align 8
  %6 = load ptr, ptr %5, align 8
  %7 = load i64, ptr %6, align 8
  %8 = load ptr, ptr %4, align 8
  %9 = load i64, ptr %8, align 8
  %10 = icmp ult i64 %7, %9
  br i1 %10, label %11, label %13

11:                                               ; preds = %2
  %12 = load ptr, ptr %5, align 8
  store ptr %12, ptr %3, align 8
  br label %15

13:                                               ; preds = %2
  %14 = load ptr, ptr %4, align 8
  store ptr %14, ptr %3, align 8
  br label %15

15:                                               ; preds = %13, %11
  %16 = load ptr, ptr %3, align 8
  ret ptr %16
}

; Function Attrs: mustprogress uwtable
define linkonce_odr void @_ZN5faiss10LockLevels6lock_2Ev(ptr noundef nonnull align 8 dereferenceable(246) %0) #2 comdat align 2 {
  %2 = alloca ptr, align 8
  store ptr %0, ptr %2, align 8
  %3 = load ptr, ptr %2, align 8
  %4 = getelementptr inbounds %"struct.faiss::LockLevels", ptr %3, i32 0, i32 0
  %5 = call i32 @pthread_mutex_lock(ptr noundef %4) #13
  %6 = getelementptr inbounds %"struct.faiss::LockLevels", ptr %3, i32 0, i32 5
  %7 = load i32, ptr %6, align 8
  %8 = add nsw i32 %7, 1
  store i32 %8, ptr %6, align 8
  %9 = getelementptr inbounds %"struct.faiss::LockLevels", ptr %3, i32 0, i32 6
  %10 = load i8, ptr %9, align 4
  %11 = trunc i8 %10 to i1
  br i1 %11, label %12, label %15

12:                                               ; preds = %1
  %13 = getelementptr inbounds %"struct.faiss::LockLevels", ptr %3, i32 0, i32 3
  %14 = call i32 @pthread_cond_signal(ptr noundef %13) #13
  br label %15

15:                                               ; preds = %12, %1
  br label %16

16:                                               ; preds = %20, %15
  %17 = getelementptr inbounds %"struct.faiss::LockLevels", ptr %3, i32 0, i32 7
  %18 = load i8, ptr %17, align 1
  %19 = trunc i8 %18 to i1
  br i1 %19, label %20, label %24

20:                                               ; preds = %16
  %21 = getelementptr inbounds %"struct.faiss::LockLevels", ptr %3, i32 0, i32 2
  %22 = getelementptr inbounds %"struct.faiss::LockLevels", ptr %3, i32 0, i32 0
  %23 = call i32 @pthread_cond_wait(ptr noundef %21, ptr noundef %22)
  br label %16, !llvm.loop !24

24:                                               ; preds = %16
  %25 = getelementptr inbounds %"struct.faiss::LockLevels", ptr %3, i32 0, i32 7
  store i8 1, ptr %25, align 1
  %26 = getelementptr inbounds %"struct.faiss::LockLevels", ptr %3, i32 0, i32 0
  %27 = call i32 @pthread_mutex_unlock(ptr noundef %26) #13
  ret void
}

; Function Attrs: mustprogress nounwind uwtable
define linkonce_odr noundef nonnull align 8 dereferenceable(24) ptr @_ZNSt6vectorIN5faiss13OnDiskOneListESaIS1_EEixEm(ptr noundef nonnull align 8 dereferenceable(24) %0, i64 noundef %1) #0 comdat align 2 {
  %3 = alloca ptr, align 8
  %4 = alloca i64, align 8
  store ptr %0, ptr %3, align 8
  store i64 %1, ptr %4, align 8
  %5 = load ptr, ptr %3, align 8
  %6 = getelementptr inbounds %"struct.std::_Vector_base.6", ptr %5, i32 0, i32 0
  %7 = getelementptr inbounds %"struct.std::_Vector_base<faiss::OnDiskOneList, std::allocator<faiss::OnDiskOneList>>::_Vector_impl_data", ptr %6, i32 0, i32 0
  %8 = load ptr, ptr %7, align 8
  %9 = load i64, ptr %4, align 8
  %10 = getelementptr inbounds %"struct.faiss::OnDiskOneList", ptr %8, i64 %9
  ret ptr %10
}

; Function Attrs: mustprogress uwtable
define void @_ZN5faiss19OnDiskInvertedLists13resize_lockedEmm(ptr noundef nonnull align 8 dereferenceable(156) %0, i64 noundef %1, i64 noundef %2) #2 align 2 {
  %4 = alloca ptr, align 8
  %5 = alloca i64, align 8
  %6 = alloca i64, align 8
  %7 = alloca ptr, align 8
  %8 = alloca %"struct.faiss::OnDiskOneList", align 8
  %9 = alloca %"struct.faiss::OnDiskOneList", align 8
  %10 = alloca i64, align 8
  store ptr %0, ptr %4, align 8
  store i64 %1, ptr %5, align 8
  store i64 %2, ptr %6, align 8
  %11 = load ptr, ptr %4, align 8
  %12 = getelementptr inbounds %"struct.faiss::OnDiskInvertedLists", ptr %11, i32 0, i32 2
  %13 = load i64, ptr %5, align 8
  %14 = call noundef nonnull align 8 dereferenceable(24) ptr @_ZNSt6vectorIN5faiss13OnDiskOneListESaIS1_EEixEm(ptr noundef nonnull align 8 dereferenceable(24) %12, i64 noundef %13) #13
  store ptr %14, ptr %7, align 8
  %15 = load i64, ptr %6, align 8
  %16 = load ptr, ptr %7, align 8
  %17 = getelementptr inbounds %"struct.faiss::OnDiskOneList", ptr %16, i32 0, i32 1
  %18 = load i64, ptr %17, align 8
  %19 = icmp ule i64 %15, %18
  br i1 %19, label %20, label %31

20:                                               ; preds = %3
  %21 = load i64, ptr %6, align 8
  %22 = load ptr, ptr %7, align 8
  %23 = getelementptr inbounds %"struct.faiss::OnDiskOneList", ptr %22, i32 0, i32 1
  %24 = load i64, ptr %23, align 8
  %25 = udiv i64 %24, 2
  %26 = icmp ugt i64 %21, %25
  br i1 %26, label %27, label %31

27:                                               ; preds = %20
  %28 = load i64, ptr %6, align 8
  %29 = load ptr, ptr %7, align 8
  %30 = getelementptr inbounds %"struct.faiss::OnDiskOneList", ptr %29, i32 0, i32 0
  store i64 %28, ptr %30, align 8
  br label %119

31:                                               ; preds = %20, %3
  %32 = getelementptr inbounds %"struct.faiss::OnDiskInvertedLists", ptr %11, i32 0, i32 9
  %33 = load ptr, ptr %32, align 8
  call void @_ZN5faiss10LockLevels6lock_2Ev(ptr noundef nonnull align 8 dereferenceable(246) %33)
  %34 = load ptr, ptr %7, align 8
  %35 = getelementptr inbounds %"struct.faiss::OnDiskOneList", ptr %34, i32 0, i32 2
  %36 = load i64, ptr %35, align 8
  %37 = load ptr, ptr %7, align 8
  %38 = getelementptr inbounds %"struct.faiss::OnDiskOneList", ptr %37, i32 0, i32 1
  %39 = load i64, ptr %38, align 8
  call void @_ZN5faiss19OnDiskInvertedLists9free_slotEmm(ptr noundef nonnull align 8 dereferenceable(156) %11, i64 noundef %36, i64 noundef %39)
  call void @_ZN5faiss13OnDiskOneListC1Ev(ptr noundef nonnull align 8 dereferenceable(24) %8)
  %40 = load i64, ptr %6, align 8
  %41 = icmp eq i64 %40, 0
  br i1 %41, label %42, label %43

42:                                               ; preds = %31
  call void @_ZN5faiss13OnDiskOneListC1Ev(ptr noundef nonnull align 8 dereferenceable(24) %9)
  call void @llvm.memcpy.p0.p0.i64(ptr align 8 %8, ptr align 8 %9, i64 24, i1 false)
  br label %65

43:                                               ; preds = %31
  %44 = load i64, ptr %6, align 8
  %45 = getelementptr inbounds %"struct.faiss::OnDiskOneList", ptr %8, i32 0, i32 0
  store i64 %44, ptr %45, align 8
  %46 = getelementptr inbounds %"struct.faiss::OnDiskOneList", ptr %8, i32 0, i32 1
  store i64 1, ptr %46, align 8
  br label %47

47:                                               ; preds = %52, %43
  %48 = getelementptr inbounds %"struct.faiss::OnDiskOneList", ptr %8, i32 0, i32 1
  %49 = load i64, ptr %48, align 8
  %50 = load i64, ptr %6, align 8
  %51 = icmp ult i64 %49, %50
  br i1 %51, label %52, label %56

52:                                               ; preds = %47
  %53 = getelementptr inbounds %"struct.faiss::OnDiskOneList", ptr %8, i32 0, i32 1
  %54 = load i64, ptr %53, align 8
  %55 = mul i64 %54, 2
  store i64 %55, ptr %53, align 8
  br label %47, !llvm.loop !23

56:                                               ; preds = %47
  %57 = getelementptr inbounds %"struct.faiss::OnDiskOneList", ptr %8, i32 0, i32 1
  %58 = load i64, ptr %57, align 8
  %59 = getelementptr inbounds %"struct.faiss::InvertedLists", ptr %11, i32 0, i32 2
  %60 = load i64, ptr %59, align 8
  %61 = add i64 8, %60
  %62 = mul i64 %58, %61
  %63 = call noundef i64 @_ZN5faiss19OnDiskInvertedLists13allocate_slotEm(ptr noundef nonnull align 8 dereferenceable(156) %11, i64 noundef %62)
  %64 = getelementptr inbounds %"struct.faiss::OnDiskOneList", ptr %8, i32 0, i32 2
  store i64 %63, ptr %64, align 8
  br label %65

65:                                               ; preds = %56, %42
  %66 = load ptr, ptr %7, align 8
  %67 = getelementptr inbounds %"struct.faiss::OnDiskOneList", ptr %66, i32 0, i32 2
  %68 = load i64, ptr %67, align 8
  %69 = getelementptr inbounds %"struct.faiss::OnDiskOneList", ptr %8, i32 0, i32 2
  %70 = load i64, ptr %69, align 8
  %71 = icmp ne i64 %68, %70
  br i1 %71, label %72, label %113

72:                                               ; preds = %65
  %73 = load ptr, ptr %7, align 8
  %74 = getelementptr inbounds %"struct.faiss::OnDiskOneList", ptr %73, i32 0, i32 0
  %75 = call noundef nonnull align 8 dereferenceable(8) ptr @_ZSt3minImERKT_S2_S2_(ptr noundef nonnull align 8 dereferenceable(8) %6, ptr noundef nonnull align 8 dereferenceable(8) %74)
  %76 = load i64, ptr %75, align 8
  store i64 %76, ptr %10, align 8
  %77 = load i64, ptr %10, align 8
  %78 = icmp ugt i64 %77, 0
  br i1 %78, label %79, label %112

79:                                               ; preds = %72
  %80 = getelementptr inbounds %"struct.faiss::OnDiskInvertedLists", ptr %11, i32 0, i32 6
  %81 = load ptr, ptr %80, align 8
  %82 = getelementptr inbounds %"struct.faiss::OnDiskOneList", ptr %8, i32 0, i32 2
  %83 = load i64, ptr %82, align 8
  %84 = getelementptr inbounds i8, ptr %81, i64 %83
  %85 = load i64, ptr %5, align 8
  %86 = load ptr, ptr %11, align 8
  %87 = getelementptr inbounds ptr, ptr %86, i64 4
  %88 = load ptr, ptr %87, align 8
  %89 = call noundef ptr %88(ptr noundef nonnull align 8 dereferenceable(156) %11, i64 noundef %85)
  %90 = load i64, ptr %10, align 8
  %91 = getelementptr inbounds %"struct.faiss::InvertedLists", ptr %11, i32 0, i32 2
  %92 = load i64, ptr %91, align 8
  %93 = mul i64 %90, %92
  call void @llvm.memcpy.p0.p0.i64(ptr align 1 %84, ptr align 1 %89, i64 %93, i1 false)
  %94 = getelementptr inbounds %"struct.faiss::OnDiskInvertedLists", ptr %11, i32 0, i32 6
  %95 = load ptr, ptr %94, align 8
  %96 = getelementptr inbounds %"struct.faiss::OnDiskOneList", ptr %8, i32 0, i32 2
  %97 = load i64, ptr %96, align 8
  %98 = getelementptr inbounds i8, ptr %95, i64 %97
  %99 = getelementptr inbounds %"struct.faiss::OnDiskOneList", ptr %8, i32 0, i32 1
  %100 = load i64, ptr %99, align 8
  %101 = getelementptr inbounds %"struct.faiss::InvertedLists", ptr %11, i32 0, i32 2
  %102 = load i64, ptr %101, align 8
  %103 = mul i64 %100, %102
  %104 = getelementptr inbounds i8, ptr %98, i64 %103
  %105 = load i64, ptr %5, align 8
  %106 = load ptr, ptr %11, align 8
  %107 = getelementptr inbounds ptr, ptr %106, i64 5
  %108 = load ptr, ptr %107, align 8
  %109 = call noundef ptr %108(ptr noundef nonnull align 8 dereferenceable(156) %11, i64 noundef %105)
  %110 = load i64, ptr %10, align 8
  %111 = mul i64 %110, 8
  call void @llvm.memcpy.p0.p0.i64(ptr align 1 %104, ptr align 8 %109, i64 %111, i1 false)
  br label %112

112:                                              ; preds = %79, %72
  br label %113

113:                                              ; preds = %112, %65
  %114 = getelementptr inbounds %"struct.faiss::OnDiskInvertedLists", ptr %11, i32 0, i32 2
  %115 = load i64, ptr %5, align 8
  %116 = call noundef nonnull align 8 dereferenceable(24) ptr @_ZNSt6vectorIN5faiss13OnDiskOneListESaIS1_EEixEm(ptr noundef nonnull align 8 dereferenceable(24) %114, i64 noundef %115) #13
  call void @llvm.memcpy.p0.p0.i64(ptr align 8 %116, ptr align 8 %8, i64 24, i1 false)
  %117 = getelementptr inbounds %"struct.faiss::OnDiskInvertedLists", ptr %11, i32 0, i32 9
  %118 = load ptr, ptr %117, align 8
  call void @_ZN5faiss10LockLevels8unlock_2Ev(ptr noundef nonnull align 8 dereferenceable(246) %118)
  br label %119

119:                                              ; preds = %113, %27
  ret void
}