; Function Attrs: mustprogress uwtable
define void @_ZN5faiss19OnDiskInvertedLists13resize_lockedEmm(ptr noundef nonnull align 8 dereferenceable(156) %0, i64 noundef %1, i64 noundef %2) local_unnamed_addr #3 align 2 {
  %4 = alloca %"struct.faiss::OnDiskOneList", align 8
  %5 = alloca %"struct.faiss::OnDiskOneList", align 8
  %6 = getelementptr inbounds i8, ptr %0, i64 32
  %7 = load ptr, ptr %6, align 8
  %8 = getelementptr inbounds %"struct.faiss::OnDiskOneList", ptr %7, i64 %1
  %9 = getelementptr inbounds i8, ptr %8, i64 8
  %10 = load i64, ptr %9, align 8
  %.not = icmp uge i64 %10, %2
  %11 = lshr i64 %10, 1
  %12 = icmp ult i64 %11, %2
  %or.cond = and i1 %.not, %12
  br i1 %or.cond, label %13, label %14

13:                                               ; preds = %3
  store i64 %2, ptr %8, align 8
  br label %96

14:                                               ; preds = %3
  %15 = getelementptr inbounds i8, ptr %0, i64 136
  %16 = load ptr, ptr %15, align 8
  %17 = tail call i32 @pthread_mutex_lock(ptr noundef nonnull %16) #16
  %18 = getelementptr inbounds i8, ptr %16, i64 240
  %19 = load i32, ptr %18, align 8
  %20 = add nsw i32 %19, 1
  store i32 %20, ptr %18, align 8
  %21 = getelementptr inbounds i8, ptr %16, i64 244
  %22 = load i8, ptr %21, align 4
  %23 = and i8 %22, 1
  %.not.i = icmp eq i8 %23, 0
  br i1 %.not.i, label %27, label %24

24:                                               ; preds = %14
  %25 = getelementptr inbounds i8, ptr %16, i64 136
  %26 = tail call i32 @pthread_cond_signal(ptr noundef nonnull %25) #16
  br label %27

27:                                               ; preds = %24, %14
  %28 = getelementptr inbounds i8, ptr %16, i64 245
  %29 = load i8, ptr %28, align 1
  %30 = and i8 %29, 1
  %.not12.i = icmp eq i8 %30, 0
  br i1 %.not12.i, label %_ZN5faiss10LockLevels6lock_2Ev.exit, label %.lr.ph.i

.lr.ph.i:                                         ; preds = %27
  %31 = getelementptr inbounds i8, ptr %16, i64 88
  br label %32

32:                                               ; preds = %32, %.lr.ph.i
  %33 = tail call i32 @pthread_cond_wait(ptr noundef nonnull %31, ptr noundef nonnull %16)
  %34 = load i8, ptr %28, align 1
  %35 = and i8 %34, 1
  %.not1.i = icmp eq i8 %35, 0
  br i1 %.not1.i, label %_ZN5faiss10LockLevels6lock_2Ev.exit, label %32, !llvm.loop !30

_ZN5faiss10LockLevels6lock_2Ev.exit:              ; preds = %32, %27
  store i8 1, ptr %28, align 1
  %36 = tail call i32 @pthread_mutex_unlock(ptr noundef nonnull %16) #16
  %37 = getelementptr inbounds i8, ptr %8, i64 16
  %38 = load i64, ptr %37, align 8
  %39 = load i64, ptr %9, align 8
  tail call void @_ZN5faiss19OnDiskInvertedLists9free_slotEmm(ptr noundef nonnull align 8 dereferenceable(156) %0, i64 noundef %38, i64 noundef %39)
  call void @_ZN5faiss13OnDiskOneListC1Ev(ptr noundef nonnull align 8 dereferenceable(24) %4)
  %40 = icmp eq i64 %2, 0
  br i1 %40, label %41, label %42

41:                                               ; preds = %_ZN5faiss10LockLevels6lock_2Ev.exit
  call void @_ZN5faiss13OnDiskOneListC1Ev(ptr noundef nonnull align 8 dereferenceable(24) %5)
  call void @llvm.memcpy.p0.p0.i64(ptr noundef nonnull align 8 dereferenceable(24) %4, ptr noundef nonnull align 8 dereferenceable(24) %5, i64 24, i1 false)
  %.phi.trans.insert = getelementptr inbounds i8, ptr %4, i64 16
  %.pre = load i64, ptr %.phi.trans.insert, align 8
  br label %54

42:                                               ; preds = %_ZN5faiss10LockLevels6lock_2Ev.exit
  store i64 %2, ptr %4, align 8
  br label %43

43:                                               ; preds = %43, %42
  %storemerge = phi i64 [ 1, %42 ], [ %45, %43 ]
  %44 = icmp ult i64 %storemerge, %2
  %45 = shl i64 %storemerge, 1
  br i1 %44, label %43, label %46, !llvm.loop !31

46:                                               ; preds = %43
  %47 = getelementptr inbounds i8, ptr %4, i64 8
  store i64 %storemerge, ptr %47, align 8
  %48 = getelementptr inbounds i8, ptr %0, i64 16
  %49 = load i64, ptr %48, align 8
  %50 = add i64 %49, 8
  %51 = mul i64 %50, %storemerge
  %52 = call noundef i64 @_ZN5faiss19OnDiskInvertedLists13allocate_slotEm(ptr noundef nonnull align 8 dereferenceable(156) %0, i64 noundef %51)
  %53 = getelementptr inbounds i8, ptr %4, i64 16
  store i64 %52, ptr %53, align 8
  br label %54

54:                                               ; preds = %46, %41
  %55 = phi i64 [ %52, %46 ], [ %.pre, %41 ]
  %56 = load i64, ptr %37, align 8
  %57 = getelementptr inbounds i8, ptr %4, i64 16
  %.not18 = icmp eq i64 %56, %55
  br i1 %.not18, label %84, label %58

58:                                               ; preds = %54
  %59 = load i64, ptr %8, align 8
  %.sroa.speculated = call i64 @llvm.umin.i64(i64 %59, i64 %2)
  %.not19 = icmp eq i64 %.sroa.speculated, 0
  br i1 %.not19, label %84, label %60

60:                                               ; preds = %58
  %61 = getelementptr inbounds i8, ptr %0, i64 120
  %62 = load ptr, ptr %61, align 8
  %63 = getelementptr inbounds i8, ptr %62, i64 %55
  %64 = load ptr, ptr %0, align 8
  %65 = getelementptr inbounds i8, ptr %64, i64 32
  %66 = load ptr, ptr %65, align 8
  %67 = call noundef ptr %66(ptr noundef nonnull align 8 dereferenceable(156) %0, i64 noundef %1)
  %68 = getelementptr inbounds i8, ptr %0, i64 16
  %69 = load i64, ptr %68, align 8
  %70 = mul i64 %69, %.sroa.speculated
  call void @llvm.memcpy.p0.p0.i64(ptr align 1 %63, ptr align 1 %67, i64 %70, i1 false)
  %71 = load ptr, ptr %61, align 8
  %72 = load i64, ptr %57, align 8
  %73 = getelementptr inbounds i8, ptr %71, i64 %72
  %74 = getelementptr inbounds i8, ptr %4, i64 8
  %75 = load i64, ptr %74, align 8
  %76 = load i64, ptr %68, align 8
  %77 = mul i64 %76, %75
  %78 = getelementptr inbounds i8, ptr %73, i64 %77
  %79 = load ptr, ptr %0, align 8
  %80 = getelementptr inbounds i8, ptr %79, i64 40
  %81 = load ptr, ptr %80, align 8
  %82 = call noundef ptr %81(ptr noundef nonnull align 8 dereferenceable(156) %0, i64 noundef %1)
  %83 = shl i64 %.sroa.speculated, 3
  call void @llvm.memcpy.p0.p0.i64(ptr align 1 %78, ptr align 8 %82, i64 %83, i1 false)
  br label %84

84:                                               ; preds = %58, %60, %54
  %85 = load ptr, ptr %6, align 8
  %86 = getelementptr inbounds %"struct.faiss::OnDiskOneList", ptr %85, i64 %1
  call void @llvm.memcpy.p0.p0.i64(ptr noundef nonnull align 8 dereferenceable(24) %86, ptr noundef nonnull align 8 dereferenceable(24) %4, i64 24, i1 false)
  %87 = load ptr, ptr %15, align 8
  %88 = call i32 @pthread_mutex_lock(ptr noundef nonnull %87) #16
  %89 = getelementptr inbounds i8, ptr %87, i64 245
  store i8 0, ptr %89, align 1
  %90 = getelementptr inbounds i8, ptr %87, i64 240
  %91 = load i32, ptr %90, align 8
  %92 = add nsw i32 %91, -1
  store i32 %92, ptr %90, align 8
  %93 = getelementptr inbounds i8, ptr %87, i64 88
  %94 = call i32 @pthread_cond_signal(ptr noundef nonnull %93) #16
  %95 = call i32 @pthread_mutex_unlock(ptr noundef nonnull %87) #16
  br label %96

96:                                               ; preds = %84, %13
  ret void
}